target datalayout = "e-m:e-p270:32:32-p271:32:32-p272:64:64-i64:64-i128:128-f80:128-n8:16:32:64-S128"
target triple = "x86_64-pc-linux-gnu"

%struct.dlist_head = type { %struct.dlist_node }
%struct.dlist_node = type { ptr, ptr }

@pgStatPending = internal global %struct.dlist_head { %struct.dlist_node { ptr @pgStatPending, ptr @pgStatPending } }, align 8
@MyDatabaseId = external global i32, align 4
@MyProcNumber = external global i32, align 4

; Function Attrs: inlinehint nounwind uwtable
define internal void @dlist_init(ptr noundef %0) #6 {
  %2 = alloca ptr, align 8
  store ptr %0, ptr %2, align 8
  %3 = load ptr, ptr %2, align 8
  %4 = getelementptr inbounds nuw %struct.dlist_head, ptr %3, i32 0, i32 0
  %5 = load ptr, ptr %2, align 8
  %6 = getelementptr inbounds nuw %struct.dlist_head, ptr %5, i32 0, i32 0
  %7 = getelementptr inbounds nuw %struct.dlist_node, ptr %6, i32 0, i32 0
  store ptr %4, ptr %7, align 8
  %8 = load ptr, ptr %2, align 8
  %9 = getelementptr inbounds nuw %struct.dlist_head, ptr %8, i32 0, i32 0
  %10 = getelementptr inbounds nuw %struct.dlist_node, ptr %9, i32 0, i32 1
  store ptr %4, ptr %10, align 8
  ret void
}

; Function Attrs: nounwind uwtable
define internal void @pgstat_shutdown_hook(i32 noundef %0, i64 noundef %1) #0 {
  %3 = alloca i32, align 4
  %4 = alloca i64, align 8
  store i32 %0, ptr %3, align 4
  store i64 %1, ptr %4, align 8
  %5 = load i32, ptr @MyDatabaseId, align 4
  %6 = icmp ne i32 %5, 0
  br i1 %6, label %7, label %9

7:                                                ; preds = %2
  %8 = load i32, ptr @MyDatabaseId, align 4
  call void @pgstat_report_disconnect(i32 noundef %8)
  br label %9

9:                                                ; preds = %7, %2
  %10 = call i64 @pgstat_report_stat(i1 noundef zeroext true)
  call void @dlist_init(ptr noundef @pgStatPending)
  %11 = load i32, ptr @MyProcNumber, align 4
  %12 = sext i32 %11 to i64
  %13 = call zeroext i1 @pgstat_drop_entry(i32 noundef 6, i32 noundef 0, i64 noundef %12)
  br i1 %13, label %15, label %14

14:                                               ; preds = %9
  call void @pgstat_request_entry_refs_gc()
  br label %15

15:                                               ; preds = %14, %9
  call void @pgstat_detach_shmem()
  ret void
}