; Function Attrs: nounwind uwtable
define internal void @pgstat_shutdown_hook(i32 %0, i64 %1) #0 {
  %3 = load i32, ptr @MyDatabaseId, align 4
  %.not = icmp eq i32 %3, 0
  br i1 %.not, label %5, label %4

4:                                                ; preds = %2
  tail call void @pgstat_report_disconnect(i32 noundef %3) #17
  br label %5

5:                                                ; preds = %4, %2
  %6 = tail call i64 @pgstat_report_stat(i1 noundef zeroext true)
  store ptr @pgStatPending, ptr @pgStatPending, align 8
  store ptr @pgStatPending, ptr getelementptr inbounds nuw (i8, ptr @pgStatPending, i64 8), align 8
  %7 = load i32, ptr @MyProcNumber, align 4
  %8 = sext i32 %7 to i64
  %9 = tail call zeroext i1 @pgstat_drop_entry(i32 noundef 6, i32 noundef 0, i64 noundef %8) #17
  br i1 %9, label %11, label %10

10:                                               ; preds = %5
  tail call void @pgstat_request_entry_refs_gc() #17
  br label %11

11:                                               ; preds = %10, %5
  tail call void @pgstat_detach_shmem() #17
  ret void
}